; Function Attrs: mustprogress uwtable
define noalias noundef nonnull ptr @lean_uv_udp_new(ptr noundef readnone captures(none) %0) local_unnamed_addr #0 {
  %2 = tail call noalias dereferenceable_or_null(24) ptr @malloc(i64 noundef 24) #17
  %3 = getelementptr inbounds nuw i8, ptr %2, i64 8
  %4 = tail call noalias dereferenceable_or_null(216) ptr @malloc(i64 noundef 216) #17
  tail call void @llvm.memset.p0.i64(ptr noundef nonnull align 8 dereferenceable(16) %3, i8 0, i64 16, i1 false)
  tail call void @_ZN4lean15event_loop_lockEPNS_12event_loop_tE(ptr noundef nonnull @_ZN4lean9global_evE)
  %5 = load ptr, ptr @_ZN4lean9global_evE, align 8, !tbaa !31
  %6 = tail call i32 @uv_udp_init(ptr noundef %5, ptr noundef %4)
  tail call void @_ZN4lean17event_loop_unlockEPNS_12event_loop_tE(ptr noundef nonnull @_ZN4lean9global_evE)
  %.not = icmp eq i32 %6, 0
  br i1 %.not, label %12, label %7

7:                                                ; preds = %1
  tail call void @free(ptr noundef %4) #15
  tail call void @free(ptr noundef nonnull %2) #15
  %8 = tail call ptr @lean_decode_uv_error(i32 noundef %6, ptr noundef null)
  tail call void @lean_inc_heartbeat()
  %9 = tail call noalias ptr @mi_malloc_small(i64 noundef 24) #15
  %10 = icmp eq ptr %9, null
  br i1 %10, label %11, label %_ZL23lean_io_result_mk_errorP11lean_object.exit

11:                                               ; preds = %7
  tail call void @lean_internal_panic_out_of_memory() #16
  unreachable

12:                                               ; preds = %1
  %13 = load ptr, ptr @_ZN4leanL30g_uv_udp_socket_external_classE, align 8, !tbaa !30
  tail call void @lean_inc_heartbeat()
  %14 = tail call noalias ptr @mi_malloc_small(i64 noundef 24) #15
  %15 = icmp eq ptr %14, null
  br i1 %15, label %16, label %_ZN4leanL22lean_uv_udp_socket_newEPNS_25lean_uv_udp_socket_objectE.exit

16:                                               ; preds = %12
  tail call void @lean_internal_panic_out_of_memory() #16
  unreachable

_ZN4leanL22lean_uv_udp_socket_newEPNS_25lean_uv_udp_socket_objectE.exit: ; preds = %12
  %17 = getelementptr inbounds nuw i8, ptr %14, i64 4
  store i32 1, ptr %14, align 4, !tbaa !36
  store i32 -33554408, ptr %17, align 4
  %18 = getelementptr inbounds nuw i8, ptr %14, i64 8
  store ptr %13, ptr %18, align 8, !tbaa !38
  %19 = getelementptr inbounds nuw i8, ptr %14, i64 16
  store ptr %2, ptr %19, align 8, !tbaa !40
  tail call void @lean_mark_mt(ptr noundef nonnull %14)
  store ptr %4, ptr %2, align 8, !tbaa !20
  store ptr %14, ptr %4, align 8, !tbaa !21
  tail call void @lean_inc_heartbeat()
  %20 = tail call noalias ptr @mi_malloc_small(i64 noundef 24) #15
  %21 = icmp eq ptr %20, null
  br i1 %21, label %22, label %_ZL23lean_io_result_mk_errorP11lean_object.exit

22:                                               ; preds = %_ZN4leanL22lean_uv_udp_socket_newEPNS_25lean_uv_udp_socket_objectE.exit
  tail call void @lean_internal_panic_out_of_memory() #16
  unreachable

_ZL23lean_io_result_mk_errorP11lean_object.exit:  ; preds = %_ZN4leanL22lean_uv_udp_socket_newEPNS_25lean_uv_udp_socket_objectE.exit, %7
  %.sink21 = phi ptr [ %9, %7 ], [ %20, %_ZN4leanL22lean_uv_udp_socket_newEPNS_25lean_uv_udp_socket_objectE.exit ]
  %.sink18 = phi i32 [ 16908312, %7 ], [ 131096, %_ZN4leanL22lean_uv_udp_socket_newEPNS_25lean_uv_udp_socket_objectE.exit ]
  %.sink = phi ptr [ %8, %7 ], [ %14, %_ZN4leanL22lean_uv_udp_socket_newEPNS_25lean_uv_udp_socket_objectE.exit ]
  %23 = getelementptr inbounds nuw i8, ptr %.sink21, i64 4
  store i32 1, ptr %.sink21, align 4, !tbaa !36
  store i32 %.sink18, ptr %23, align 4
  %24 = getelementptr inbounds nuw i8, ptr %.sink21, i64 8
  store ptr %.sink, ptr %24, align 8, !tbaa !30
  %25 = getelementptr inbounds nuw i8, ptr %.sink21, i64 16
  store ptr inttoptr (i64 1 to ptr), ptr %25, align 8, !tbaa !30
  ret ptr %.sink21
}